; Function Attrs: mustprogress nounwind uwtable
define dso_local void @_ZNK4llvm10AsmPrinter11printOffsetElRNS_11raw_ostreamE(ptr nocapture noundef nonnull readnone align 8 dereferenceable(785) %0, i64 noundef %1, ptr noundef nonnull align 8 dereferenceable(48) %2) local_unnamed_addr #0 align 2 {
  %4 = icmp sgt i64 %1, 0
  br i1 %4, label %5, label %14

5:                                                ; preds = %3
  %6 = getelementptr inbounds nuw i8, ptr %2, i64 32
  %7 = load ptr, ptr %6, align 8
  %8 = getelementptr inbounds nuw i8, ptr %2, i64 24
  %9 = load ptr, ptr %8, align 8
  %.not.i = icmp ult ptr %7, %9
  br i1 %.not.i, label %12, label %10

10:                                               ; preds = %5
  %11 = tail call noundef nonnull align 8 dereferenceable(48) ptr @_ZN4llvm11raw_ostream5writeEh(ptr noundef nonnull align 8 dereferenceable(48) %2, i8 noundef zeroext 43) #33
  br label %.sink.split

12:                                               ; preds = %5
  %13 = getelementptr inbounds i8, ptr %7, i64 1
  store ptr %13, ptr %6, align 8
  store i8 43, ptr %7, align 1
  br label %.sink.split

14:                                               ; preds = %3
  %15 = icmp slt i64 %1, 0
  br i1 %15, label %.sink.split, label %17

.sink.split:                                      ; preds = %14, %12, %10
  %.sink = phi ptr [ %11, %10 ], [ %2, %12 ], [ %2, %14 ]
  %16 = tail call noundef nonnull align 8 dereferenceable(48) ptr @_ZN4llvm11raw_ostreamlsEl(ptr noundef nonnull align 8 dereferenceable(48) %.sink, i64 noundef %1) #33
  br label %17

17:                                               ; preds = %.sink.split, %14
  ret void
}